	.cpu cortex-m4
	.eabi_attribute 27, 1
	.eabi_attribute 28, 1
	.eabi_attribute 20, 1
	.eabi_attribute 21, 1
	.eabi_attribute 23, 3
	.eabi_attribute 24, 1
	.eabi_attribute 25, 1
	.eabi_attribute 26, 1
	.eabi_attribute 30, 4
	.eabi_attribute 34, 1
	.eabi_attribute 18, 4
	.file	"system_nrf52840.c"
	.text
.Ltext0:
	.section	.text.errata_98,"ax",%progbits
	.align	1
	.syntax unified
	.thumb
	.thumb_func
	.fpu fpv4-sp-d16
	.type	errata_98, %function
errata_98:
.LFB128:
	.file 1 "D:\\Project\\wireless_tech\\nRF5_SDK_15.0.0_a53641a\\modules\\nrfx\\mdk\\system_nrf52840.c"
	.loc 1 224 0
	@ args = 0, pretend = 0, frame = 0
	@ frame_needed = 0, uses_anonymous_args = 0
	@ link register save eliminated.
	.loc 1 225 0
	ldr	r3, .L4
	ldr	r3, [r3]
	cmp	r3, #8
	.loc 1 226 0
	itttt	eq
	ldreq	r3, .L4+4
	ldreq	r0, [r3]
	clzeq	r0, r0
	lsreq	r0, r0, #5
	.loc 1 231 0
	it	ne
	movne	r0, #0
	.loc 1 232 0
	bx	lr
.L5:
	.align	2
.L4:
	.word	268435760
	.word	268435764
.LFE128:
	.size	errata_98, .-errata_98
	.thumb_set errata_120,errata_98
	.thumb_set errata_115,errata_98
	.thumb_set errata_103,errata_98
	.section	.text.SystemCoreClockUpdate,"ax",%progbits
	.align	1
	.global	SystemCoreClockUpdate
	.syntax unified
	.thumb
	.thumb_func
	.fpu fpv4-sp-d16
	.type	SystemCoreClockUpdate, %function
SystemCoreClockUpdate:
.LFB124:
	.loc 1 53 0
	@ args = 0, pretend = 0, frame = 0
	@ frame_needed = 0, uses_anonymous_args = 0
	@ link register save eliminated.
	.loc 1 54 0
	ldr	r3, .L7
	ldr	r2, .L7+4
	str	r2, [r3]
	.loc 1 55 0
	bx	lr
.L8:
	.align	2
.L7:
	.word	.LANCHOR0
	.word	64000000
.LFE124:
	.size	SystemCoreClockUpdate, .-SystemCoreClockUpdate
	.section	.text.SystemInit,"ax",%progbits
	.align	1
	.global	SystemInit
	.syntax unified
	.thumb
	.thumb_func
	.fpu fpv4-sp-d16
	.type	SystemInit, %function
SystemInit:
.LFB125:
	.loc 1 58 0
	@ args = 0, pretend = 0, frame = 0
	@ frame_needed = 0, uses_anonymous_args = 0
	push	{r3, lr}
.LCFI0:
	.loc 1 82 0
	mov	r3, #1073741824
	movs	r2, #0
	str	r2, [r3, #268]
	.loc 1 83 0
	str	r2, [r3, #272]
	.loc 1 84 0
	str	r2, [r3, #1336]
	.loc 1 90 0
	mov	r2, #268435456
	add	r3, r3, #49152
	ldr	r1, [r2, #1028]
	str	r1, [r3, #1312]
	.loc 1 91 0
	ldr	r1, [r2, #1032]
	str	r1, [r3, #1316]
	.loc 1 92 0
	ldr	r1, [r2, #1036]
	str	r1, [r3, #1320]
	.loc 1 93 0
	ldr	r1, [r2, #1040]
	str	r1, [r3, #1324]
	.loc 1 94 0
	ldr	r1, [r2, #1044]
	str	r1, [r3, #1328]
	.loc 1 95 0
	ldr	r1, [r2, #1048]
	str	r1, [r3, #1332]
	.loc 1 96 0
	ldr	r1, [r2, #1052]
	str	r1, [r3, #1344]
	.loc 1 97 0
	ldr	r1, [r2, #1056]
	str	r1, [r3, #1348]
	.loc 1 98 0
	ldr	r1, [r2, #1060]
	str	r1, [r3, #1352]
	.loc 1 99 0
	ldr	r1, [r2, #1064]
	str	r1, [r3, #1356]
	.loc 1 100 0
	ldr	r1, [r2, #1068]
	str	r1, [r3, #1360]
	.loc 1 101 0
	ldr	r1, [r2, #1072]
	str	r1, [r3, #1364]
	.loc 1 102 0
	ldr	r1, [r2, #1076]
	str	r1, [r3, #1376]
	.loc 1 103 0
	ldr	r1, [r2, #1080]
	str	r1, [r3, #1380]
	.loc 1 104 0
	ldr	r1, [r2, #1084]
	str	r1, [r3, #1384]
	.loc 1 105 0
	ldr	r1, [r2, #1088]
	str	r1, [r3, #1388]
	.loc 1 106 0
	ldr	r2, [r2, #1092]
	str	r2, [r3, #1392]
	.loc 1 111 0
	bl	errata_98
.LVL0:
	cbz	r0, .L10
	.loc 1 112 0
	ldr	r3, .L45
	ldr	r2, .L45+4
	str	r2, [r3]
.L10:
	.loc 1 117 0
	bl	errata_103
.LVL1:
	cbz	r0, .L11
	.loc 1 118 0
	ldr	r3, .L45+8
	movs	r2, #251
	str	r2, [r3, #1304]
.L11:
	.loc 1 123 0
	bl	errata_115
.LVL2:
	cbz	r0, .L12
	.loc 1 124 0
	ldr	r1, .L45+12
	ldr	r3, .L45+16
	ldr	r2, [r1]
	ldr	r3, [r3]
	bic	r2, r2, #15
	and	r3, r3, #15
	orrs	r3, r3, r2
	str	r3, [r1]
.L12:
	.loc 1 129 0
	bl	errata_120
.LVL3:
	cbz	r0, .L13
	.loc 1 130 0
	ldr	r3, .L45+20
	mov	r2, #512
	str	r2, [r3]
.L13:
	.loc 1 136 0
	mov	r3, #1073741824
	ldr	r2, [r3, #1024]
	lsls	r2, r2, #31
	.loc 1 137 0
	itt	mi
	mvnmi	r2, #1
	strmi	r2, [r3, #1024]
	.loc 1 145 0
	ldr	r2, .L45+24
	ldr	r3, [r2, #136]
	orr	r3, r3, #15728640
	str	r3, [r2, #136]
.LBB38:
.LBB39:
	.file 2 "D:\\Project\\wireless_tech\\nRF5_SDK_15.0.0_a53641a/components/toolchain/cmsis/include/cmsis_gcc.h"
	.loc 2 429 0
	.syntax unified
@ 429 "D:\Project\wireless_tech\nRF5_SDK_15.0.0_a53641a/components/toolchain/cmsis/include/cmsis_gcc.h" 1
	dsb 0xF
@ 0 "" 2
	.thumb
	.syntax unified
.LBE39:
.LBE38:
.LBB40:
.LBB41:
	.loc 2 418 0
	.syntax unified
@ 418 "D:\Project\wireless_tech\nRF5_SDK_15.0.0_a53641a/components/toolchain/cmsis/include/cmsis_gcc.h" 1
	isb 0xF
@ 0 "" 2
	.thumb
	.syntax unified
.LBE41:
.LBE40:
	.loc 1 169 0
	mov	r3, #268439552
	ldr	r2, [r3, #512]
	cmp	r2, #0
	blt	.L15
	.loc 1 170 0 discriminator 1
	ldr	r3, [r3, #516]
	.loc 1 169 0 discriminator 1
	cmp	r3, #0
	bge	.L16
.L15:
	.loc 1 171 0
	ldr	r3, .L45+28
	movs	r2, #1
	str	r2, [r3, #1284]
.L17:
	.loc 1 172 0 discriminator 1
	ldr	r2, [r3, #1024]
	cmp	r2, #0
	beq	.L17
	.loc 1 173 0
	mov	r2, #268439552
	movs	r1, #18
	str	r1, [r2, #512]
.L18:
	.loc 1 174 0 discriminator 1
	ldr	r2, [r3, #1024]
	cmp	r2, #0
	beq	.L18
	.loc 1 175 0
	mov	r3, #268439552
	movs	r2, #18
	str	r2, [r3, #516]
	.loc 1 176 0
	ldr	r3, .L45+28
	mov	r2, r3
.L19:
	.loc 1 176 0 is_stmt 0 discriminator 1
	ldr	r1, [r3, #1024]
	cmp	r1, #0
	beq	.L19
	.loc 1 177 0 is_stmt 1
	movs	r1, #0
	str	r1, [r3, #1284]
.L20:
	.loc 1 178 0 discriminator 1
	ldr	r3, [r2, #1024]
	cmp	r3, #0
	beq	.L20
.LBB42:
.LBB43:
.LBB44:
.LBB45:
	.loc 2 429 0
	.syntax unified
@ 429 "D:\Project\wireless_tech\nRF5_SDK_15.0.0_a53641a/components/toolchain/cmsis/include/cmsis_gcc.h" 1
	dsb 0xF
@ 0 "" 2
	.thumb
	.syntax unified
.LBE45:
.LBE44:
	.file 3 "D:\\Project\\wireless_tech\\nRF5_SDK_15.0.0_a53641a/components/toolchain/cmsis/include/core_cm4.h"
	.loc 3 1795 0
	ldr	r1, .L45+24
	ldr	r3, .L45+32
	ldr	r2, [r1, #12]
	and	r2, r2, #1792
	orrs	r3, r3, r2
	.loc 3 1794 0
	str	r3, [r1, #12]
.LBB46:
.LBB47:
	.loc 2 429 0
	.syntax unified
@ 429 "D:\Project\wireless_tech\nRF5_SDK_15.0.0_a53641a/components/toolchain/cmsis/include/cmsis_gcc.h" 1
	dsb 0xF
@ 0 "" 2
	.thumb
	.syntax unified
.L21:
.LBE47:
.LBE46:
.LBB48:
.LBB49:
	.loc 2 375 0
	.syntax unified
@ 375 "D:\Project\wireless_tech\nRF5_SDK_15.0.0_a53641a/components/toolchain/cmsis/include/cmsis_gcc.h" 1
	nop
@ 0 "" 2
	.thumb
	.syntax unified
	b	.L21
.L16:
.LBE49:
.LBE48:
.LBE43:
.LBE42:
.LBB50:
.LBB51:
	.loc 1 54 0
	ldr	r3, .L45+36
	ldr	r2, .L45+40
	str	r2, [r3]
.LBE51:
.LBE50:
	.loc 1 184 0
	pop	{r3, pc}
.L46:
	.align	2
.L45:
	.word	1073763980
	.word	229704
	.word	1073803264
	.word	1073745636
	.word	268436056
	.word	1073911360
	.word	-536810240
	.word	1073864704
	.word	100270084
	.word	.LANCHOR0
	.word	64000000
.LFE125:
	.size	SystemInit, .-SystemInit
	.global	SystemCoreClock
	.section	.data.SystemCoreClock,"aw",%progbits
	.align	2
	.set	.LANCHOR0,. + 0
	.type	SystemCoreClock, %object
	.size	SystemCoreClock, 4
SystemCoreClock:
	.word	64000000
	.section	.debug_frame,"",%progbits
.Lframe0:
	.4byte	.LECIE0-.LSCIE0
.LSCIE0:
	.4byte	0xffffffff
	.byte	0x3
	.ascii	"\000"
	.uleb128 0x1
	.sleb128 -4
	.uleb128 0xe
	.byte	0xc
	.uleb128 0xd
	.uleb128 0
	.align	2
.LECIE0:
.LSFDE0:
	.4byte	.LEFDE0-.LASFDE0
.LASFDE0:
	.4byte	.Lframe0
	.4byte	.LFB128
	.4byte	.LFE128-.LFB128
	.align	2
.LEFDE0:
.LSFDE2:
	.4byte	.LEFDE2-.LASFDE2
.LASFDE2:
	.4byte	.Lframe0
	.4byte	.LFB124
	.4byte	.LFE124-.LFB124
	.align	2
.LEFDE2:
.LSFDE4:
	.4byte	.LEFDE4-.LASFDE4
.LASFDE4:
	.4byte	.Lframe0
	.4byte	.LFB125
	.4byte	.LFE125-.LFB125
	.byte	0x4
	.4byte	.LCFI0-.LFB125
	.byte	0xe
	.uleb128 0x8
	.byte	0x83
	.uleb128 0x2
	.byte	0x8e
	.uleb128 0x1
	.align	2
.LEFDE4:
	.text
.Letext0:
	.file 4 "E:/Software Application/include/stdint.h"
	.file 5 "D:\\Project\\wireless_tech\\nRF5_SDK_15.0.0_a53641a\\modules\\nrfx\\mdk\\system_nrf52840.h"
	.file 6 "D:\\Project\\wireless_tech\\nRF5_SDK_15.0.0_a53641a\\modules\\nrfx\\mdk\\nrf52840.h"